; Function Attrs: nounwind uwtable
define dso_local range(i32 -1, 1) i32 @select_p_job_fini(ptr noundef %0) local_unnamed_addr #0 {
  %2 = tail call i32 @pthread_mutex_lock(ptr noundef nonnull @cr_mutex) #11
  %.not = icmp eq i32 %2, 0
  br i1 %.not, label %5, label %3

3:                                                ; preds = %1
  %4 = tail call ptr @__errno_location() #12
  store i32 %2, ptr %4, align 4
  tail call void (ptr, ...) @slurm_fatal_abort(ptr noundef nonnull @.str.1, ptr noundef nonnull @__func__.select_p_job_fini) #13
  unreachable

5:                                                ; preds = %1
  %6 = load ptr, ptr @cr_ptr, align 8
  %7 = icmp eq ptr %6, null
  br i1 %7, label %8, label %9

8:                                                ; preds = %5
  tail call fastcc void @_init_node_cr()
  %.pre = load ptr, ptr @cr_ptr, align 8
  br label %9

9:                                                ; preds = %8, %5
  %10 = phi ptr [ %.pre, %8 ], [ %6, %5 ]
  %11 = tail call fastcc i32 @_rm_job_from_nodes(ptr noundef %10, ptr noundef %0, ptr noundef nonnull @__func__.select_p_job_fini, i1 noundef zeroext true)
  %12 = tail call i32 @pthread_mutex_unlock(ptr noundef nonnull @cr_mutex) #11
  %.not8 = icmp eq i32 %12, 0
  br i1 %.not8, label %15, label %13

13:                                               ; preds = %9
  %14 = tail call ptr @__errno_location() #12
  store i32 %12, ptr %14, align 4
  tail call void (ptr, ...) @slurm_fatal_abort(ptr noundef nonnull @.str.2, ptr noundef nonnull @__func__.select_p_job_fini) #13
  unreachable

15:                                               ; preds = %9
  %.not7 = icmp ne i32 %11, 0
  %spec.select = sext i1 %.not7 to i32
  ret i32 %spec.select
}